target datalayout = "e-m:e-p270:32:32-p271:32:32-p272:64:64-i64:64-i128:128-f80:128-n8:16:32:64-S128"
target triple = "x86_64-pc-linux-gnu"

%struct.H5B_class_t = type { i32, i64, ptr, ptr, ptr, ptr, ptr, ptr, i8, i8, i32, ptr, ptr, ptr, ptr }
%struct.H5O_stab_t = type { i64, i64 }
%struct.H5G_bt_it_cpy_t = type { ptr, ptr, i64, ptr, ptr, ptr }
%struct.H5O_copy_t = type { i8, i8, i8, i8, i8, i8, i8, ptr, i32, i32, ptr, ptr, i8, ptr, ptr, ptr, ptr, ptr, i64 }
%struct.H5O_loc_t = type { ptr, i64, i8 }

@.str.1 = private unnamed_addr constant [101 x i8] c"generated/home/dtcxzyw/WorkSpace/Projects/compilers/llvm-opt-benchmark/bench/hdf5/hdf5/src/H5Ostab.c\00", align 1
@H5E_SYM_g = external global i64, align 8
@H5E_CANTINIT_g = external global i64, align 8
@__func__.H5O__stab_post_copy_file = private unnamed_addr constant [25 x i8] c"H5O__stab_post_copy_file\00", align 1
@H5E_PROTECT_g = external global i64, align 8
@.str.8 = private unnamed_addr constant [29 x i8] c"unable to protect local heap\00", align 1
@H5B_SNODE = external global [1 x %struct.H5B_class_t], align 16
@.str.9 = private unnamed_addr constant [26 x i8] c"iteration operator failed\00", align 1
@H5E_CANTUNPROTECT_g = external global i64, align 8
@.str.10 = private unnamed_addr constant [31 x i8] c"unable to unprotect local heap\00", align 1

; Function Attrs: nounwind uwtable
define internal i32 @H5O__stab_post_copy_file(ptr noundef %0, ptr noundef %1, ptr noundef %2, ptr noundef %3, ptr noundef %4, ptr noundef %5) #0 {
  %7 = alloca ptr, align 8
  %8 = alloca ptr, align 8
  %9 = alloca ptr, align 8
  %10 = alloca ptr, align 8
  %11 = alloca ptr, align 8
  %12 = alloca ptr, align 8
  %13 = alloca ptr, align 8
  %14 = alloca ptr, align 8
  %15 = alloca %struct.H5G_bt_it_cpy_t, align 8
  %16 = alloca ptr, align 8
  %17 = alloca i32, align 4
  %18 = alloca i8, align 1
  store ptr %0, ptr %7, align 8
  store ptr %1, ptr %8, align 8
  store ptr %2, ptr %9, align 8
  store ptr %3, ptr %10, align 8
  store ptr %4, ptr %11, align 8
  store ptr %5, ptr %12, align 8
  %19 = load ptr, ptr %8, align 8
  store ptr %19, ptr %13, align 8
  %20 = load ptr, ptr %10, align 8
  store ptr %20, ptr %14, align 8
  store ptr null, ptr %16, align 8
  store i32 0, ptr %17, align 4
  store i8 0, ptr %18, align 1
  %21 = load ptr, ptr %12, align 8
  %22 = getelementptr inbounds %struct.H5O_copy_t, ptr %21, i32 0, i32 9
  %23 = load i32, ptr %22, align 4
  %24 = icmp sge i32 %23, 0
  br i1 %24, label %25, label %36

25:                                               ; preds = %6
  %26 = load ptr, ptr %12, align 8
  %27 = getelementptr inbounds %struct.H5O_copy_t, ptr %26, i32 0, i32 8
  %28 = load i32, ptr %27, align 8
  %29 = load ptr, ptr %12, align 8
  %30 = getelementptr inbounds %struct.H5O_copy_t, ptr %29, i32 0, i32 9
  %31 = load i32, ptr %30, align 4
  %32 = icmp sge i32 %28, %31
  br i1 %32, label %33, label %36

33:                                               ; preds = %25
  br label %34

34:                                               ; preds = %33
  store i32 0, ptr %17, align 4
  br label %100

35:                                               ; No predecessors!
  br label %36

36:                                               ; preds = %35, %25, %6
  %37 = load ptr, ptr %7, align 8
  %38 = getelementptr inbounds %struct.H5O_loc_t, ptr %37, i32 0, i32 0
  %39 = load ptr, ptr %38, align 8
  %40 = load ptr, ptr %13, align 8
  %41 = getelementptr inbounds %struct.H5O_stab_t, ptr %40, i32 0, i32 1
  %42 = load i64, ptr %41, align 8
  %43 = call ptr @H5HL_protect(ptr noundef %39, i64 noundef %42, i32 noundef 128)
  store ptr %43, ptr %16, align 8
  %44 = icmp eq ptr null, %43
  br i1 %44, label %45, label %60

45:                                               ; preds = %36
  br label %46

46:                                               ; preds = %45
  br label %47

47:                                               ; preds = %46
  br label %48

48:                                               ; preds = %47
  %49 = load i64, ptr @H5E_SYM_g, align 8
  %50 = load i64, ptr @H5E_PROTECT_g, align 8
  %51 = call i32 (ptr, ptr, i32, i64, i64, ptr, ...) @H5E_printf_stack(ptr noundef @.str.1, ptr noundef @__func__.H5O__stab_post_copy_file, i32 noundef 352, i64 noundef %49, i64 noundef %50, ptr noundef @.str.8)
  br label %52

52:                                               ; preds = %48
  store i8 1, ptr %18, align 1
  %53 = load i8, ptr %18, align 1
  %54 = trunc i8 %53 to i1
  %55 = zext i1 %54 to i8
  store i8 %55, ptr %18, align 1
  br label %56

56:                                               ; preds = %52
  br label %57

57:                                               ; preds = %56
  store i32 -1, ptr %17, align 4
  br label %100

58:                                               ; No predecessors!
  br label %59

59:                                               ; preds = %58
  br label %60

60:                                               ; preds = %59, %36
  %61 = load ptr, ptr %7, align 8
  %62 = getelementptr inbounds %struct.H5G_bt_it_cpy_t, ptr %15, i32 0, i32 0
  store ptr %61, ptr %62, align 8
  %63 = load ptr, ptr %16, align 8
  %64 = getelementptr inbounds %struct.H5G_bt_it_cpy_t, ptr %15, i32 0, i32 1
  store ptr %63, ptr %64, align 8
  %65 = load ptr, ptr %16, align 8
  %66 = call i64 @H5HL_heap_get_size(ptr noundef %65)
  %67 = getelementptr inbounds %struct.H5G_bt_it_cpy_t, ptr %15, i32 0, i32 2
  store i64 %66, ptr %67, align 8
  %68 = load ptr, ptr %9, align 8
  %69 = getelementptr inbounds %struct.H5O_loc_t, ptr %68, i32 0, i32 0
  %70 = load ptr, ptr %69, align 8
  %71 = getelementptr inbounds %struct.H5G_bt_it_cpy_t, ptr %15, i32 0, i32 3
  store ptr %70, ptr %71, align 8
  %72 = load ptr, ptr %14, align 8
  %73 = getelementptr inbounds %struct.H5G_bt_it_cpy_t, ptr %15, i32 0, i32 4
  store ptr %72, ptr %73, align 8
  %74 = load ptr, ptr %12, align 8
  %75 = getelementptr inbounds %struct.H5G_bt_it_cpy_t, ptr %15, i32 0, i32 5
  store ptr %74, ptr %75, align 8
  %76 = load ptr, ptr %7, align 8
  %77 = getelementptr inbounds %struct.H5O_loc_t, ptr %76, i32 0, i32 0
  %78 = load ptr, ptr %77, align 8
  %79 = load ptr, ptr %13, align 8
  %80 = getelementptr inbounds %struct.H5O_stab_t, ptr %79, i32 0, i32 0
  %81 = load i64, ptr %80, align 8
  %82 = call i32 @H5B_iterate(ptr noundef %78, ptr noundef @H5B_SNODE, i64 noundef %81, ptr noundef @H5G__node_copy, ptr noundef %15)
  %83 = icmp slt i32 %82, 0
  br i1 %83, label %84, label %99

84:                                               ; preds = %60
  br label %85

85:                                               ; preds = %84
  br label %86

86:                                               ; preds = %85
  br label %87

87:                                               ; preds = %86
  %88 = load i64, ptr @H5E_SYM_g, align 8
  %89 = load i64, ptr @H5E_CANTINIT_g, align 8
  %90 = call i32 (ptr, ptr, i32, i64, i64, ptr, ...) @H5E_printf_stack(ptr noundef @.str.1, ptr noundef @__func__.H5O__stab_post_copy_file, i32 noundef 364, i64 noundef %88, i64 noundef %89, ptr noundef @.str.9)
  br label %91

91:                                               ; preds = %87
  store i8 1, ptr %18, align 1
  %92 = load i8, ptr %18, align 1
  %93 = trunc i8 %92 to i1
  %94 = zext i1 %93 to i8
  store i8 %94, ptr %18, align 1
  br label %95

95:                                               ; preds = %91
  br label %96

96:                                               ; preds = %95
  store i32 -1, ptr %17, align 4
  br label %100

97:                                               ; No predecessors!
  br label %98

98:                                               ; preds = %97
  br label %99

99:                                               ; preds = %98, %60
  br label %100

100:                                              ; preds = %99, %96, %57, %34
  %101 = load ptr, ptr %16, align 8
  %102 = icmp ne ptr %101, null
  br i1 %102, label %103, label %120

103:                                              ; preds = %100
  %104 = load ptr, ptr %16, align 8
  %105 = call i32 @H5HL_unprotect(ptr noundef %104)
  %106 = icmp slt i32 %105, 0
  br i1 %106, label %107, label %120

107:                                              ; preds = %103
  br label %108

108:                                              ; preds = %107
  br label %109

109:                                              ; preds = %108
  br label %110

110:                                              ; preds = %109
  %111 = load i64, ptr @H5E_SYM_g, align 8
  %112 = load i64, ptr @H5E_CANTUNPROTECT_g, align 8
  %113 = call i32 (ptr, ptr, i32, i64, i64, ptr, ...) @H5E_printf_stack(ptr noundef @.str.1, ptr noundef @__func__.H5O__stab_post_copy_file, i32 noundef 368, i64 noundef %111, i64 noundef %112, ptr noundef @.str.10)
  br label %114

114:                                              ; preds = %110
  store i8 1, ptr %18, align 1
  %115 = load i8, ptr %18, align 1
  %116 = trunc i8 %115 to i1
  %117 = zext i1 %116 to i8
  store i8 %117, ptr %18, align 1
  br label %118

118:                                              ; preds = %114
  store i32 -1, ptr %17, align 4
  br label %119

119:                                              ; preds = %118
  br label %120

120:                                              ; preds = %119, %103, %100
  %121 = load i32, ptr %17, align 4
  ret i32 %121
}