; Function Attrs: nounwind uwtable
define internal range(i32 -1, 1) i32 @H5O__stab_post_copy_file(ptr noundef %0, ptr nocapture noundef readonly %1, ptr nocapture noundef readonly %2, ptr noundef %3, ptr nocapture readnone %4, ptr noundef %5) #0 {
  %7 = alloca %struct.H5G_bt_it_cpy_t, align 8
  %8 = getelementptr inbounds i8, ptr %5, i64 20
  %9 = load i32, ptr %8, align 4
  %10 = icmp sgt i32 %9, -1
  br i1 %10, label %11, label %14

11:                                               ; preds = %6
  %12 = getelementptr inbounds i8, ptr %5, i64 16
  %13 = load i32, ptr %12, align 8
  %.not = icmp slt i32 %13, %9
  br i1 %.not, label %14, label %.thread

14:                                               ; preds = %11, %6
  %15 = load ptr, ptr %0, align 8
  %16 = getelementptr inbounds i8, ptr %1, i64 8
  %17 = load i64, ptr %16, align 8
  %18 = tail call ptr @H5HL_protect(ptr noundef %15, i64 noundef %17, i32 noundef 128) #5
  %19 = icmp eq ptr %18, null
  br i1 %19, label %20, label %24

20:                                               ; preds = %14
  %21 = load i64, ptr @H5E_SYM_g, align 8
  %22 = load i64, ptr @H5E_PROTECT_g, align 8
  %23 = tail call i32 (ptr, ptr, i32, i64, i64, ptr, ...) @H5E_printf_stack(ptr noundef nonnull @.str.1, ptr noundef nonnull @__func__.H5O__stab_post_copy_file, i32 noundef 352, i64 noundef %21, i64 noundef %22, ptr noundef nonnull @.str.8) #5
  br label %.thread

24:                                               ; preds = %14
  store ptr %0, ptr %7, align 8
  %25 = getelementptr inbounds i8, ptr %7, i64 8
  store ptr %18, ptr %25, align 8
  %26 = tail call i64 @H5HL_heap_get_size(ptr noundef nonnull %18) #5
  %27 = getelementptr inbounds i8, ptr %7, i64 16
  store i64 %26, ptr %27, align 8
  %28 = load ptr, ptr %2, align 8
  %29 = getelementptr inbounds i8, ptr %7, i64 24
  store ptr %28, ptr %29, align 8
  %30 = getelementptr inbounds i8, ptr %7, i64 32
  store ptr %3, ptr %30, align 8
  %31 = getelementptr inbounds i8, ptr %7, i64 40
  store ptr %5, ptr %31, align 8
  %32 = load ptr, ptr %0, align 8
  %33 = load i64, ptr %1, align 8
  %34 = call i32 @H5B_iterate(ptr noundef %32, ptr noundef nonnull @H5B_SNODE, i64 noundef %33, ptr noundef nonnull @H5G__node_copy, ptr noundef nonnull %7) #5
  %35 = icmp slt i32 %34, 0
  br i1 %35, label %36, label %40

36:                                               ; preds = %24
  %37 = load i64, ptr @H5E_SYM_g, align 8
  %38 = load i64, ptr @H5E_CANTINIT_g, align 8
  %39 = call i32 (ptr, ptr, i32, i64, i64, ptr, ...) @H5E_printf_stack(ptr noundef nonnull @.str.1, ptr noundef nonnull @__func__.H5O__stab_post_copy_file, i32 noundef 364, i64 noundef %37, i64 noundef %38, ptr noundef nonnull @.str.9) #5
  br label %40

40:                                               ; preds = %36, %24
  %.0 = phi i32 [ -1, %36 ], [ 0, %24 ]
  %41 = call i32 @H5HL_unprotect(ptr noundef nonnull %18) #5
  %42 = icmp slt i32 %41, 0
  br i1 %42, label %43, label %.thread

43:                                               ; preds = %40
  %44 = load i64, ptr @H5E_SYM_g, align 8
  %45 = load i64, ptr @H5E_CANTUNPROTECT_g, align 8
  %46 = call i32 (ptr, ptr, i32, i64, i64, ptr, ...) @H5E_printf_stack(ptr noundef nonnull @.str.1, ptr noundef nonnull @__func__.H5O__stab_post_copy_file, i32 noundef 368, i64 noundef %44, i64 noundef %45, ptr noundef nonnull @.str.10) #5
  br label %.thread

.thread:                                          ; preds = %11, %20, %43, %40
  %.1 = phi i32 [ -1, %43 ], [ %.0, %40 ], [ 0, %11 ], [ -1, %20 ]
  ret i32 %.1
}